target datalayout = "e-m:e-p270:32:32-p271:32:32-p272:64:64-i64:64-i128:128-f80:128-n8:16:32:64-S128"
target triple = "x86_64-pc-linux-gnu"

%struct.rb_transcoder = type { ptr, ptr, i32, ptr, i32, ptr, i32, i32, i32, i32, i32, i32, i64, ptr, ptr, ptr, ptr, ptr, ptr, ptr, ptr, ptr, ptr }
%struct.rb_econv_t = type { i32, i32, ptr, ptr, ptr, i64, ptr, ptr, ptr, ptr, ptr, ptr, i32, i32, i32, i32, ptr, %struct.anon, ptr, ptr }
%struct.anon = type { i32, ptr, ptr, ptr, ptr, i64, i64 }
%struct.rb_transcoding = type { ptr, i32, i32, i32, i64, i8, i32, i64, i64, %union.anon, i64, i64, %union.anon.0, %union.rb_transcoding_state_t }
%union.anon = type { ptr }
%union.anon.0 = type { ptr }
%union.rb_transcoding_state_t = type { ptr }
%struct.RString = type { %struct.RBasic, i64, %union.anon.1 }
%struct.RBasic = type { i64, i64 }
%union.anon.1 = type { %struct.anon.2 }
%struct.anon.2 = type { ptr, %union.anon.3 }
%union.anon.3 = type { i64 }
%struct.anon.4 = type { [1 x i8] }

@rb_eArgError = external global i64, align 8
@.str.3 = private unnamed_addr constant [16 x i8] c"too long string\00", align 1

; Function Attrs: inlinehint nounwind sspstrong willreturn memory(read) uwtable
define internal i64 @RB_FL_TEST_RAW(i64 noundef %0, i64 noundef %1) #11 {
  %3 = alloca i64, align 8
  %4 = alloca i64, align 8
  store i64 %0, ptr %3, align 8, !tbaa !12
  store i64 %1, ptr %4, align 8, !tbaa !12
  %5 = load i64, ptr %3, align 8, !tbaa !12
  %6 = inttoptr i64 %5 to ptr
  %7 = getelementptr inbounds nuw %struct.RBasic, ptr %6, i32 0, i32 0
  %8 = load i64, ptr %7, align 8, !tbaa !212
  %9 = load i64, ptr %4, align 8, !tbaa !12
  %10 = and i64 %8, %9
  ret i64 %10
}

; Function Attrs: inlinehint nounwind sspstrong memory(argmem: readwrite, inaccessiblemem: readwrite) uwtable
define internal void @rbimpl_fl_set_raw_raw(ptr noundef %0, i64 noundef %1) #9 {
  %3 = alloca ptr, align 8
  %4 = alloca i64, align 8
  store ptr %0, ptr %3, align 8, !tbaa !213
  store i64 %1, ptr %4, align 8, !tbaa !12
  %5 = load i64, ptr %4, align 8, !tbaa !12
  %6 = load ptr, ptr %3, align 8, !tbaa !213
  %7 = getelementptr inbounds nuw %struct.RBasic, ptr %6, i32 0, i32 0
  %8 = load i64, ptr %7, align 8, !tbaa !212
  %9 = or i64 %8, %5
  store i64 %9, ptr %7, align 8, !tbaa !212
  ret void
}

; Function Attrs: inlinehint nounwind sspstrong memory(argmem: readwrite, inaccessiblemem: readwrite) uwtable
define internal void @rbimpl_fl_unset_raw_raw(ptr noundef %0, i64 noundef %1) #9 {
  %3 = alloca ptr, align 8
  %4 = alloca i64, align 8
  store ptr %0, ptr %3, align 8, !tbaa !213
  store i64 %1, ptr %4, align 8, !tbaa !12
  %5 = load i64, ptr %4, align 8, !tbaa !12
  %6 = xor i64 %5, -1
  %7 = load ptr, ptr %3, align 8, !tbaa !213
  %8 = getelementptr inbounds nuw %struct.RBasic, ptr %7, i32 0, i32 0
  %9 = load i64, ptr %8, align 8, !tbaa !212
  %10 = and i64 %9, %6
  store i64 %10, ptr %8, align 8, !tbaa !212
  ret void
}

; Function Attrs: inlinehint nounwind sspstrong willreturn memory(read) uwtable
define internal zeroext i1 @RB_FL_ANY_RAW(i64 noundef %0, i64 noundef %1) #11 {
  %3 = alloca i64, align 8
  %4 = alloca i64, align 8
  store i64 %0, ptr %3, align 8, !tbaa !12
  store i64 %1, ptr %4, align 8, !tbaa !12
  %5 = load i64, ptr %3, align 8, !tbaa !12
  %6 = load i64, ptr %4, align 8, !tbaa !12
  %7 = call i64 @RB_FL_TEST_RAW(i64 noundef %5, i64 noundef %6) #29
  %8 = icmp ne i64 %7, 0
  ret i1 %8
}

; Function Attrs: inlinehint nounwind sspstrong uwtable
define internal void @RB_FL_SET_RAW(i64 noundef %0, i64 noundef %1) #7 {
  %3 = alloca i64, align 8
  %4 = alloca i64, align 8
  store i64 %0, ptr %3, align 8, !tbaa !12
  store i64 %1, ptr %4, align 8, !tbaa !12
  %5 = load i64, ptr %3, align 8, !tbaa !12
  %6 = inttoptr i64 %5 to ptr
  %7 = load i64, ptr %4, align 8, !tbaa !12
  call void @rbimpl_fl_set_raw_raw(ptr noundef %6, i64 noundef %7) #28
  ret void
}

; Function Attrs: inlinehint nounwind sspstrong uwtable
define internal void @RB_FL_UNSET_RAW(i64 noundef %0, i64 noundef %1) #7 {
  %3 = alloca i64, align 8
  %4 = alloca i64, align 8
  store i64 %0, ptr %3, align 8, !tbaa !12
  store i64 %1, ptr %4, align 8, !tbaa !12
  %5 = load i64, ptr %3, align 8, !tbaa !12
  %6 = inttoptr i64 %5 to ptr
  %7 = load i64, ptr %4, align 8, !tbaa !12
  call void @rbimpl_fl_unset_raw_raw(ptr noundef %6, i64 noundef %7) #28
  ret void
}

; Function Attrs: inlinehint nounwind sspstrong willreturn memory(read, argmem: readwrite) uwtable
define internal void @rbimpl_rstring_getmem(ptr dead_on_unwind noalias writable sret(%struct.RString) align 8 %0, i64 noundef %1) #22 {
  %3 = alloca i64, align 8
  store i64 %1, ptr %3, align 8, !tbaa !12
  %4 = load i64, ptr %3, align 8, !tbaa !12
  %5 = call zeroext i1 @RB_FL_ANY_RAW(i64 noundef %4, i64 noundef 8192) #29
  br i1 %5, label %6, label %9

6:                                                ; preds = %2
  %7 = load i64, ptr %3, align 8, !tbaa !12
  %8 = inttoptr i64 %7 to ptr
  call void @llvm.memcpy.p0.p0.i64(ptr align 8 %0, ptr align 8 %8, i64 40, i1 false), !tbaa.struct !211
  br label %20

9:                                                ; preds = %2
  %10 = load i64, ptr %3, align 8, !tbaa !12
  %11 = call i64 @RSTRING_LEN(i64 noundef %10) #29
  %12 = getelementptr inbounds nuw %struct.RString, ptr %0, i32 0, i32 1
  store i64 %11, ptr %12, align 8, !tbaa !108
  %13 = load i64, ptr %3, align 8, !tbaa !12
  %14 = inttoptr i64 %13 to ptr
  %15 = getelementptr inbounds nuw %struct.RString, ptr %14, i32 0, i32 2
  %16 = getelementptr inbounds nuw %struct.anon.4, ptr %15, i32 0, i32 0
  %17 = getelementptr inbounds [1 x i8], ptr %16, i64 0, i64 0
  %18 = getelementptr inbounds nuw %struct.RString, ptr %0, i32 0, i32 2
  %19 = getelementptr inbounds nuw %struct.anon.2, ptr %18, i32 0, i32 0
  store ptr %17, ptr %19, align 8, !tbaa !41
  br label %20

20:                                               ; preds = %9, %6
  ret void
}

; Function Attrs: nounwind sspstrong uwtable
define dso_local void @rb_econv_check_error(ptr noundef %0) #0 {
  %2 = alloca ptr, align 8
  %3 = alloca i64, align 8
  store ptr %0, ptr %2, align 8, !tbaa !30
  call void @llvm.lifetime.start.p0(i64 8, ptr %3) #25
  %4 = load ptr, ptr %2, align 8, !tbaa !30
  %5 = call i64 @make_econv_exception(ptr noundef %4)
  store i64 %5, ptr %3, align 8, !tbaa !12
  %6 = load i64, ptr %3, align 8, !tbaa !12
  %7 = call zeroext i1 @RB_NIL_P(i64 noundef %6) #31
  br i1 %7, label %8, label %9

8:                                                ; preds = %1
  call void @llvm.lifetime.end.p0(i64 8, ptr %3) #25
  ret void

9:                                                ; preds = %1
  %10 = load i64, ptr %3, align 8, !tbaa !12
  call void @rb_exc_raise(i64 noundef %10) #26
  unreachable
}

; Function Attrs: inlinehint nounwind sspstrong uwtable
define internal void @RB_ENC_CODERANGE_SET(i64 noundef %0, i32 noundef %1) #7 {
  %3 = alloca i64, align 8
  %4 = alloca i32, align 4
  store i64 %0, ptr %3, align 8, !tbaa !12
  store i32 %1, ptr %4, align 4, !tbaa !29
  %5 = load i64, ptr %3, align 8, !tbaa !12
  call void @RB_FL_UNSET_RAW(i64 noundef %5, i64 noundef 3145728)
  %6 = load i64, ptr %3, align 8, !tbaa !12
  %7 = load i32, ptr %4, align 4, !tbaa !29
  %8 = zext i32 %7 to i64
  call void @RB_FL_SET_RAW(i64 noundef %6, i64 noundef %8)
  ret void
}

; Function Attrs: inlinehint nounwind sspstrong uwtable
define internal ptr @RSTRING_PTR(i64 noundef %0) #7 {
  %2 = alloca i64, align 8
  %3 = alloca ptr, align 8
  %4 = alloca %struct.RString, align 8
  store i64 %0, ptr %2, align 8, !tbaa !12
  call void @llvm.lifetime.start.p0(i64 8, ptr %3) #25
  %5 = load i64, ptr %2, align 8, !tbaa !12
  call void @rbimpl_rstring_getmem(ptr dead_on_unwind writable sret(%struct.RString) align 8 %4, i64 noundef %5) #32
  %6 = getelementptr inbounds nuw %struct.RString, ptr %4, i32 0, i32 2
  %7 = getelementptr inbounds nuw %struct.anon.2, ptr %6, i32 0, i32 0
  %8 = load ptr, ptr %7, align 8, !tbaa !41
  store ptr %8, ptr %3, align 8, !tbaa !21
  %9 = load ptr, ptr %3, align 8, !tbaa !21
  call void @llvm.lifetime.end.p0(i64 8, ptr %3) #25
  ret ptr %9
}

; Function Attrs: inlinehint nounwind sspstrong willreturn memory(read) uwtable
define internal i64 @RSTRING_LEN(i64 noundef %0) #11 {
  %2 = alloca i64, align 8
  store i64 %0, ptr %2, align 8, !tbaa !12
  %3 = load i64, ptr %2, align 8, !tbaa !12
  %4 = inttoptr i64 %3 to ptr
  %5 = getelementptr inbounds nuw %struct.RString, ptr %4, i32 0, i32 1
  %6 = load i64, ptr %5, align 8, !tbaa !108
  ret i64 %6
}

; Function Attrs: inlinehint nounwind sspstrong willreturn memory(none) uwtable
define internal zeroext i1 @RB_NIL_P(i64 noundef %0) #10 {
  %2 = alloca i64, align 8
  store i64 %0, ptr %2, align 8, !tbaa !12
  %3 = load i64, ptr %2, align 8, !tbaa !12
  %4 = icmp eq i64 %3, 4
  ret i1 %4
}

; Function Attrs: nounwind sspstrong uwtable
define dso_local i64 @rb_econv_append(ptr noundef %0, ptr noundef %1, i64 noundef %2, i64 noundef %3, i32 noundef %4) #0 {
  %6 = alloca ptr, align 8
  %7 = alloca ptr, align 8
  %8 = alloca i64, align 8
  %9 = alloca i64, align 8
  %10 = alloca i32, align 4
  %11 = alloca ptr, align 8
  %12 = alloca ptr, align 8
  %13 = alloca ptr, align 8
  %14 = alloca ptr, align 8
  %15 = alloca ptr, align 8
  %16 = alloca i32, align 4
  %17 = alloca i32, align 4
  %18 = alloca i32, align 4
  %19 = alloca ptr, align 8
  %20 = alloca i32, align 4
  %21 = alloca i64, align 8
  %22 = alloca i64, align 8
  store ptr %0, ptr %6, align 8, !tbaa !30
  store ptr %1, ptr %7, align 8, !tbaa !21
  store i64 %2, ptr %8, align 8, !tbaa !12
  store i64 %3, ptr %9, align 8, !tbaa !12
  store i32 %4, ptr %10, align 4, !tbaa !29
  call void @llvm.lifetime.start.p0(i64 8, ptr %11) #25
  call void @llvm.lifetime.start.p0(i64 8, ptr %12) #25
  call void @llvm.lifetime.start.p0(i64 8, ptr %13) #25
  call void @llvm.lifetime.start.p0(i64 8, ptr %14) #25
  call void @llvm.lifetime.start.p0(i64 8, ptr %15) #25
  call void @llvm.lifetime.start.p0(i64 4, ptr %16) #25
  call void @llvm.lifetime.start.p0(i64 4, ptr %17) #25
  call void @llvm.lifetime.start.p0(i64 4, ptr %18) #25
  call void @llvm.lifetime.start.p0(i64 8, ptr %19) #25
  %23 = load ptr, ptr %6, align 8, !tbaa !30
  %24 = getelementptr inbounds nuw %struct.rb_econv_t, ptr %23, i32 0, i32 19
  %25 = load ptr, ptr %24, align 8, !tbaa !105
  store ptr %25, ptr %19, align 8, !tbaa !106
  %26 = load i64, ptr %9, align 8, !tbaa !12
  %27 = call zeroext i1 @RB_NIL_P(i64 noundef %26) #31
  br i1 %27, label %28, label %38

28:                                               ; preds = %5
  %29 = load i64, ptr %8, align 8, !tbaa !12
  %30 = call i64 @rb_str_buf_new(i64 noundef %29)
  store i64 %30, ptr %9, align 8, !tbaa !12
  %31 = load ptr, ptr %19, align 8, !tbaa !106
  %32 = icmp ne ptr %31, null
  br i1 %32, label %33, label %37

33:                                               ; preds = %28
  %34 = load i64, ptr %9, align 8, !tbaa !12
  %35 = load ptr, ptr %19, align 8, !tbaa !106
  %36 = call i64 @rb_enc_associate(i64 noundef %34, ptr noundef %35)
  br label %37

37:                                               ; preds = %33, %28
  store i32 1048576, ptr %18, align 4, !tbaa !29
  br label %43

38:                                               ; preds = %5
  %39 = load i64, ptr %9, align 8, !tbaa !12
  %40 = call ptr @rb_enc_get(i64 noundef %39)
  store ptr %40, ptr %19, align 8, !tbaa !106
  %41 = load i64, ptr %9, align 8, !tbaa !12
  %42 = call i32 @rb_enc_str_coderange(i64 noundef %41)
  store i32 %42, ptr %18, align 4, !tbaa !29
  br label %43

43:                                               ; preds = %38, %37
  %44 = load ptr, ptr %6, align 8, !tbaa !30
  %45 = getelementptr inbounds nuw %struct.rb_econv_t, ptr %44, i32 0, i32 16
  %46 = load ptr, ptr %45, align 8, !tbaa !79
  %47 = icmp ne ptr %46, null
  br i1 %47, label %48, label %56

48:                                               ; preds = %43
  %49 = load ptr, ptr %6, align 8, !tbaa !30
  %50 = getelementptr inbounds nuw %struct.rb_econv_t, ptr %49, i32 0, i32 16
  %51 = load ptr, ptr %50, align 8, !tbaa !79
  %52 = getelementptr inbounds nuw %struct.rb_transcoding, ptr %51, i32 0, i32 0
  %53 = load ptr, ptr %52, align 8, !tbaa !51
  %54 = getelementptr inbounds nuw %struct.rb_transcoder, ptr %53, i32 0, i32 10
  %55 = load i32, ptr %54, align 8, !tbaa !91
  store i32 %55, ptr %17, align 4, !tbaa !29
  br label %57

56:                                               ; preds = %43
  store i32 1, ptr %17, align 4, !tbaa !29
  br label %57

57:                                               ; preds = %56, %48
  br label %58

58:                                               ; preds = %134, %57
  call void @llvm.lifetime.start.p0(i64 4, ptr %20) #25
  call void @llvm.lifetime.start.p0(i64 8, ptr %21) #25
  %59 = load i64, ptr %9, align 8, !tbaa !12
  %60 = call i64 @RSTRING_LEN(i64 noundef %59) #29
  store i64 %60, ptr %21, align 8, !tbaa !12
  %61 = load i64, ptr %9, align 8, !tbaa !12
  %62 = call i64 @rb_str_capacity(i64 noundef %61) #29
  %63 = load i64, ptr %21, align 8, !tbaa !12
  %64 = sub i64 %62, %63
  %65 = load i64, ptr %8, align 8, !tbaa !12
  %66 = load i32, ptr %17, align 4, !tbaa !29
  %67 = sext i32 %66 to i64
  %68 = add i64 %65, %67
  %69 = icmp ult i64 %64, %68
  br i1 %69, label %70, label %86

70:                                               ; preds = %58
  call void @llvm.lifetime.start.p0(i64 8, ptr %22) #25
  %71 = load i64, ptr %21, align 8, !tbaa !12
  %72 = load i64, ptr %8, align 8, !tbaa !12
  %73 = add i64 %71, %72
  %74 = load i32, ptr %17, align 4, !tbaa !29
  %75 = sext i32 %74 to i64
  %76 = add i64 %73, %75
  store i64 %76, ptr %22, align 8, !tbaa !12
  %77 = load i64, ptr %22, align 8, !tbaa !12
  %78 = icmp ult i64 9223372036854775807, %77
  br i1 %78, label %79, label %81

79:                                               ; preds = %70
  %80 = load i64, ptr @rb_eArgError, align 8, !tbaa !12
  call void (i64, ptr, ...) @rb_raise(i64 noundef %80, ptr noundef @.str.3) #26
  unreachable

81:                                               ; preds = %70
  %82 = load i64, ptr %9, align 8, !tbaa !12
  %83 = load i64, ptr %22, align 8, !tbaa !12
  %84 = load i64, ptr %21, align 8, !tbaa !12
  %85 = sub i64 %83, %84
  call void @rb_str_modify_expand(i64 noundef %82, i64 noundef %85)
  call void @llvm.lifetime.end.p0(i64 8, ptr %22) #25
  br label %86

86:                                               ; preds = %81, %58
  %87 = load ptr, ptr %7, align 8, !tbaa !21
  store ptr %87, ptr %11, align 8, !tbaa !21
  %88 = load ptr, ptr %11, align 8, !tbaa !21
  %89 = load i64, ptr %8, align 8, !tbaa !12
  %90 = getelementptr i8, ptr %88, i64 %89
  store ptr %90, ptr %12, align 8, !tbaa !21
  %91 = load i64, ptr %9, align 8, !tbaa !12
  %92 = call ptr @RSTRING_PTR(i64 noundef %91)
  store ptr %92, ptr %13, align 8, !tbaa !21
  %93 = load ptr, ptr %13, align 8, !tbaa !21
  %94 = load i64, ptr %9, align 8, !tbaa !12
  %95 = call i64 @rb_str_capacity(i64 noundef %94) #29
  %96 = getelementptr i8, ptr %93, i64 %95
  store ptr %96, ptr %15, align 8, !tbaa !21
  %97 = load i64, ptr %21, align 8, !tbaa !12
  %98 = load ptr, ptr %13, align 8, !tbaa !21
  %99 = getelementptr i8, ptr %98, i64 %97
  store ptr %99, ptr %13, align 8, !tbaa !21
  store ptr %99, ptr %14, align 8, !tbaa !21
  %100 = load ptr, ptr %6, align 8, !tbaa !30
  %101 = load ptr, ptr %12, align 8, !tbaa !21
  %102 = load ptr, ptr %15, align 8, !tbaa !21
  %103 = load i32, ptr %10, align 4, !tbaa !29
  %104 = call i32 @rb_econv_convert(ptr noundef %100, ptr noundef %11, ptr noundef %101, ptr noundef %14, ptr noundef %102, i32 noundef %103)
  store i32 %104, ptr %16, align 4, !tbaa !29
  %105 = load i32, ptr %18, align 4, !tbaa !29
  switch i32 %105, label %116 [
    i32 1048576, label %106
    i32 2097152, label %106
    i32 0, label %115
    i32 3145728, label %115
  ]

106:                                              ; preds = %86, %86
  %107 = load i32, ptr %18, align 4, !tbaa !29
  store i32 %107, ptr %20, align 4, !tbaa !29
  %108 = load ptr, ptr %13, align 8, !tbaa !21
  %109 = load ptr, ptr %14, align 8, !tbaa !21
  %110 = load ptr, ptr %19, align 8, !tbaa !106
  %111 = call i64 @rb_str_coderange_scan_restartable(ptr noundef %108, ptr noundef %109, ptr noundef %110, ptr noundef %20)
  %112 = load i32, ptr %20, align 4, !tbaa !29
  store i32 %112, ptr %18, align 4, !tbaa !29
  %113 = load i64, ptr %9, align 8, !tbaa !12
  %114 = load i32, ptr %18, align 4, !tbaa !29
  call void @RB_ENC_CODERANGE_SET(i64 noundef %113, i32 noundef %114)
  br label %116

115:                                              ; preds = %86, %86
  br label %116

116:                                              ; preds = %86, %115, %106
  %117 = load ptr, ptr %11, align 8, !tbaa !21
  %118 = load ptr, ptr %7, align 8, !tbaa !21
  %119 = ptrtoint ptr %117 to i64
  %120 = ptrtoint ptr %118 to i64
  %121 = sub i64 %119, %120
  %122 = load i64, ptr %8, align 8, !tbaa !12
  %123 = sub i64 %122, %121
  store i64 %123, ptr %8, align 8, !tbaa !12
  %124 = load ptr, ptr %11, align 8, !tbaa !21
  store ptr %124, ptr %7, align 8, !tbaa !21
  %125 = load i64, ptr %9, align 8, !tbaa !12
  %126 = load i64, ptr %21, align 8, !tbaa !12
  %127 = load ptr, ptr %14, align 8, !tbaa !21
  %128 = load ptr, ptr %13, align 8, !tbaa !21
  %129 = ptrtoint ptr %127 to i64
  %130 = ptrtoint ptr %128 to i64
  %131 = sub i64 %129, %130
  %132 = add i64 %126, %131
  call void @rb_str_set_len(i64 noundef %125, i64 noundef %132)
  %133 = load ptr, ptr %6, align 8, !tbaa !30
  call void @rb_econv_check_error(ptr noundef %133)
  call void @llvm.lifetime.end.p0(i64 8, ptr %21) #25
  call void @llvm.lifetime.end.p0(i64 4, ptr %20) #25
  br label %134

134:                                              ; preds = %116
  %135 = load i32, ptr %16, align 4, !tbaa !29
  %136 = icmp eq i32 %135, 2
  br i1 %136, label %58, label %137, !llvm.loop !107

137:                                              ; preds = %134
  %138 = load i64, ptr %9, align 8, !tbaa !12
  call void @llvm.lifetime.end.p0(i64 8, ptr %19) #25
  call void @llvm.lifetime.end.p0(i64 4, ptr %18) #25
  call void @llvm.lifetime.end.p0(i64 4, ptr %17) #25
  call void @llvm.lifetime.end.p0(i64 4, ptr %16) #25
  call void @llvm.lifetime.end.p0(i64 8, ptr %15) #25
  call void @llvm.lifetime.end.p0(i64 8, ptr %14) #25
  call void @llvm.lifetime.end.p0(i64 8, ptr %13) #25
  call void @llvm.lifetime.end.p0(i64 8, ptr %12) #25
  call void @llvm.lifetime.end.p0(i64 8, ptr %11) #25
  ret i64 %138
}