; Function Attrs: nounwind sspstrong uwtable
define dso_local i64 @rb_econv_append(ptr noundef %0, ptr noundef %1, i64 noundef %2, i64 noundef %3, i32 noundef %4) local_unnamed_addr #0 {
  %6 = alloca ptr, align 8
  %7 = alloca ptr, align 8
  %8 = alloca i32, align 4
  call void @llvm.lifetime.start.p0(i64 8, ptr nonnull %6) #22
  call void @llvm.lifetime.start.p0(i64 8, ptr nonnull %7) #22
  %9 = getelementptr inbounds nuw i8, ptr %0, i64 176
  %10 = load ptr, ptr %9, align 8, !tbaa !113
  %11 = icmp eq i64 %3, 4
  br i1 %11, label %12, label %16

12:                                               ; preds = %5
  %13 = tail call i64 @rb_str_buf_new(i64 noundef %2) #22
  %.not = icmp eq ptr %10, null
  br i1 %.not, label %19, label %14

14:                                               ; preds = %12
  %15 = tail call i64 @rb_enc_associate(i64 noundef %13, ptr noundef nonnull %10) #22
  br label %19

16:                                               ; preds = %5
  %17 = tail call ptr @rb_enc_get(i64 noundef %3) #22
  %18 = tail call i32 @rb_enc_str_coderange(i64 noundef %3) #22
  br label %19

19:                                               ; preds = %12, %14, %16
  %.050 = phi i64 [ %3, %16 ], [ %13, %14 ], [ %13, %12 ]
  %.048 = phi i32 [ %18, %16 ], [ 1048576, %14 ], [ 1048576, %12 ]
  %.047 = phi ptr [ %17, %16 ], [ %10, %14 ], [ null, %12 ]
  %20 = getelementptr inbounds nuw i8, ptr %0, i64 104
  %21 = load ptr, ptr %20, align 8, !tbaa !49
  %.not54 = icmp eq ptr %21, null
  br i1 %.not54, label %27, label %22

22:                                               ; preds = %19
  %23 = load ptr, ptr %21, align 8, !tbaa !65
  %24 = getelementptr inbounds nuw i8, ptr %23, i64 64
  %25 = load i32, ptr %24, align 8, !tbaa !78
  %26 = sext i32 %25 to i64
  br label %27

27:                                               ; preds = %19, %22
  %.049 = phi i64 [ %26, %22 ], [ 1, %19 ]
  %28 = inttoptr i64 %.050 to ptr
  %29 = getelementptr inbounds nuw i8, ptr %28, i64 16
  %30 = getelementptr inbounds nuw i8, ptr %28, i64 24
  br label %31

31:                                               ; preds = %rb_econv_check_error.exit, %27
  %.1 = phi i32 [ %.048, %27 ], [ %.2, %rb_econv_check_error.exit ]
  %.046 = phi i64 [ %2, %27 ], [ %73, %rb_econv_check_error.exit ]
  %.0 = phi ptr [ %1, %27 ], [ %62, %rb_econv_check_error.exit ]
  call void @llvm.lifetime.start.p0(i64 4, ptr nonnull %8) #22
  %32 = load i64, ptr %29, align 8, !tbaa !114
  %33 = call i64 @rb_str_capacity(i64 noundef %.050) #25
  %34 = sub i64 %33, %32
  %35 = add i64 %.046, %.049
  %36 = icmp ult i64 %34, %35
  br i1 %36, label %37, label %43

37:                                               ; preds = %31
  %38 = add i64 %35, %32
  %39 = icmp slt i64 %38, 0
  br i1 %39, label %40, label %42

40:                                               ; preds = %37
  %41 = load i64, ptr @rb_eArgError, align 8, !tbaa !22
  call void (i64, ptr, ...) @rb_raise(i64 noundef %41, ptr noundef nonnull @.str.3) #23
  unreachable

42:                                               ; preds = %37
  call void @rb_str_modify_expand(i64 noundef %.050, i64 noundef %35) #22
  br label %43

43:                                               ; preds = %42, %31
  store ptr %.0, ptr %6, align 8, !tbaa !26
  %44 = getelementptr i8, ptr %.0, i64 %.046
  %45 = load i64, ptr %28, align 8, !tbaa !33, !noalias !116
  %46 = and i64 %45, 8192
  %.not.i.i = icmp eq i64 %46, 0
  br i1 %.not.i.i, label %RSTRING_PTR.exit, label %47

47:                                               ; preds = %43
  %.sroa.2.0.copyload.i = load ptr, ptr %30, align 8
  br label %RSTRING_PTR.exit

RSTRING_PTR.exit:                                 ; preds = %43, %47
  %.sroa.2.0.i = phi ptr [ %.sroa.2.0.copyload.i, %47 ], [ %30, %43 ]
  %48 = call i64 @rb_str_capacity(i64 noundef %.050) #25
  %49 = getelementptr i8, ptr %.sroa.2.0.i, i64 %48
  %50 = getelementptr i8, ptr %.sroa.2.0.i, i64 %32
  store ptr %50, ptr %7, align 8, !tbaa !26
  %51 = call i32 @rb_econv_convert(ptr noundef %0, ptr noundef nonnull %6, ptr noundef %44, ptr noundef nonnull %7, ptr noundef %49, i32 noundef %4)
  %52 = call i32 @llvm.fshl.i32(i32 %.1, i32 %.1, i32 12)
  %.off = add i32 %52, -1
  %switch = icmp ult i32 %.off, 2
  br i1 %switch, label %53, label %61

53:                                               ; preds = %RSTRING_PTR.exit
  store i32 %.1, ptr %8, align 4, !tbaa !87
  %54 = load ptr, ptr %7, align 8, !tbaa !26
  %55 = call i64 @rb_str_coderange_scan_restartable(ptr noundef %50, ptr noundef %54, ptr noundef %.047, ptr noundef nonnull %8) #22
  %56 = load i32, ptr %8, align 4, !tbaa !87
  %57 = load i64, ptr %28, align 8, !tbaa !33
  %58 = and i64 %57, -3145729
  %59 = zext i32 %56 to i64
  %60 = or i64 %58, %59
  store i64 %60, ptr %28, align 8, !tbaa !33
  br label %61

61:                                               ; preds = %RSTRING_PTR.exit, %53
  %.2 = phi i32 [ %.1, %RSTRING_PTR.exit ], [ %56, %53 ]
  %62 = load ptr, ptr %6, align 8, !tbaa !26
  %63 = load ptr, ptr %7, align 8, !tbaa !26
  %64 = ptrtoint ptr %63 to i64
  %65 = ptrtoint ptr %50 to i64
  %66 = sub i64 %32, %65
  %67 = add i64 %66, %64
  call void @rb_str_set_len(i64 noundef %.050, i64 noundef %67) #22
  %68 = call fastcc i64 @make_econv_exception(ptr noundef readonly %0)
  %69 = icmp eq i64 %68, 4
  br i1 %69, label %rb_econv_check_error.exit, label %70

70:                                               ; preds = %61
  call void @rb_exc_raise(i64 noundef %68) #23
  unreachable

rb_econv_check_error.exit:                        ; preds = %61
  %71 = ptrtoint ptr %.0 to i64
  %72 = ptrtoint ptr %62 to i64
  %.neg = add i64 %.046, %71
  %73 = sub i64 %.neg, %72
  call void @llvm.lifetime.end.p0(i64 4, ptr nonnull %8) #22
  %74 = icmp eq i32 %51, 2
  br i1 %74, label %31, label %75, !llvm.loop !119

75:                                               ; preds = %rb_econv_check_error.exit
  call void @llvm.lifetime.end.p0(i64 8, ptr nonnull %7) #22
  call void @llvm.lifetime.end.p0(i64 8, ptr nonnull %6) #22
  ret i64 %.050
}